Certificate:
    Data:
        Version: 3 (0x2)
        Serial Number: 4096 (0x1000)
    Signature Algorithm: sha256WithRSAEncryption
        Issuer: C=AU, ST=Some-State, O=Internet Widgits Pty Ltd
        Validity
            Not Before: Apr 15 19:04:32 2019 GMT
            Not After : Apr 14 19:04:32 2020 GMT
        Subject: C=AU, ST=Some-State, O=Internet Widgits Pty Ltd, CN=SEEDPKILab2018.com
        Subject Public Key Info:
            Public Key Algorithm: rsaEncryption
                Public-Key: (1024 bit)
                Modulus:
                    00:cf:eb:30:35:5f:4f:b4:b7:67:d6:e7:12:77:c2:
                    f4:dc:40:e8:83:f1:b7:a8:21:bd:e5:b0:51:86:a3:
                    6d:8e:97:65:02:4b:6f:43:ae:24:d1:9f:31:6f:30:
                    86:8e:ac:32:8d:ba:46:a2:73:4e:74:2d:f6:92:c9:
                    ea:b4:47:44:98:d9:a8:d2:54:9c:c2:98:56:28:83:
                    17:6a:1b:7b:b5:3b:3a:3f:51:cf:1b:9f:a6:f7:91:
                    58:7e:2f:cf:14:7d:0a:ea:c3:1e:e2:b3:81:8f:d1:
                    57:d5:b9:2b:75:17:e5:ce:03:00:dd:06:b3:57:4f:
                    ce:3f:62:8c:df:7e:dc:42:59
                Exponent: 65537 (0x10001)
        X509v3 extensions:
            X509v3 Basic Constraints: 
                CA:FALSE
            Netscape Comment: 
                OpenSSL Generated Certificate
            X509v3 Subject Key Identifier: 
                85:F2:1E:ED:F3:C4:BC:A9:3D:F1:B9:B5:9A:23:44:65:73:EF:AE:FD
            X509v3 Authority Key Identifier: 
                keyid:47:32:48:C9:82:17:8E:36:83:F8:30:F9:67:26:F4:8F:04:24:98:37

    Signature Algorithm: sha256WithRSAEncryption
         19:73:07:b9:53:d6:c4:5b:4d:70:91:3d:44:a2:d3:6a:fd:31:
         30:15:63:27:e9:b6:17:2d:1c:2d:0a:f5:4c:bd:51:3e:f8:15:
         82:e8:9e:5c:a6:33:13:9a:2c:a0:65:b0:04:4f:a5:7f:ee:c8:
         83:42:72:cb:c5:2c:0e:4b:72:56:13:15:7d:ff:63:39:ee:d6:
         76:bf:0c:b1:ea:3d:e5:2d:7a:08:a3:0a:7f:3c:e6:16:9a:96:
         28:2f:c5:77:09:f3:28:72:bf:e1:ec:56:69:08:83:5a:f8:71:
         af:23:af:9e:ef:5c:b2:54:1c:d7:ea:08:00:d1:9c:14:8a:c0:
         e3:1b:c6:b1:09:b1:23:23:d0:4f:dd:c9:d1:bb:51:a5:79:b3:
         73:c7:cf:53:88:35:80:b7:eb:49:d1:6e:71:40:7c:39:56:3a:
         8d:08:48:81:f3:e0:b8:de:38:68:35:4a:aa:a8:dc:08:ba:3d:
         b2:5c:a2:95:8b:0a:a5:8f:d6:a5:00:fc:b0:d0:82:46:98:34:
         7a:da:06:41:35:be:fb:84:24:4f:6a:47:ac:09:9f:0c:6b:f4:
         e0:5c:1a:ab:c2:83:ae:78:93:47:ee:94:43:7d:2b:af:3c:7d:
         e0:7a:d9:f8:6a:42:2c:a3:ab:0f:69:d3:92:ae:96:51:ae:a8:
         54:f4:04:24
-----BEGIN CERTIFICATE-----
MIIDGjCCAgKgAwIBAgICEAAwDQYJKoZIhvcNAQELBQAwRTELMAkGA1UEBhMCQVUx
EzARBgNVBAgMClNvbWUtU3RhdGUxITAfBgNVBAoMGEludGVybmV0IFdpZGdpdHMg
UHR5IEx0ZDAeFw0xOTA0MTUxOTA0MzJaFw0yMDA0MTQxOTA0MzJaMGIxCzAJBgNV
BAYTAkFVMRMwEQYDVQQIDApTb21lLVN0YXRlMSEwHwYDVQQKDBhJbnRlcm5ldCBX
aWRnaXRzIFB0eSBMdGQxGzAZBgNVBAMMElNFRURQS0lMYWIyMDE4LmNvbTCBnzAN
BgkqhkiG9w0BAQEFAAOBjQAwgYkCgYEAz+swNV9PtLdn1ucSd8L03EDog/G3qCG9
5bBRhqNtjpdlAktvQ64k0Z8xbzCGjqwyjbpGonNOdC32ksnqtEdEmNmo0lScwphW
KIMXaht7tTs6P1HPG5+m95FYfi/PFH0K6sMe4rOBj9FX1bkrdRflzgMA3QazV0/O
P2KM337cQlkCAwEAAaN7MHkwCQYDVR0TBAIwADAsBglghkgBhvhCAQ0EHxYdT3Bl
blNTTCBHZW5lcmF0ZWQgQ2VydGlmaWNhdGUwHQYDVR0OBBYEFIXyHu3zxLypPfG5
tZojRGVz7679MB8GA1UdIwQYMBaAFEcySMmCF442g/gw+Wcm9I8EJJg3MA0GCSqG
SIb3DQEBCwUAA4IBAQAZcwe5U9bEW01wkT1EotNq/TEwFWMn6bYXLRwtCvVMvVE+
+BWC6J5cpjMTmiygZbAET6V/7siDQnLLxSwOS3JWExV9/2M57tZ2vwyx6j3lLXoI
owp/POYWmpYoL8V3CfMocr/h7FZpCINa+HGvI6+e71yyVBzX6ggA0ZwUisDjG8ax
CbEjI9BP3cnRu1GlebNzx89TiDWAt+tJ0W5xQHw5VjqNCEiB8+C43jhoNUqqqNwI
uj2yXKKViwqlj9alAPyw0IJGmDR62gZBNb77hCRPakesCZ8Ma/TgXBqrwoOueJNH
7pRDfSuvPH3getn4akIso6sPadOSrpZRrqhU9AQk
-----END CERTIFICATE-----
