Certificate:
    Data:
        Version: 3 (0x2)
        Serial Number: 4097 (0x1001)
    Signature Algorithm: sha256WithRSAEncryption
        Issuer: C=AU, ST=Some-State, O=Internet Widgits Pty Ltd
        Validity
            Not Before: Apr 16 18:30:26 2019 GMT
            Not After : Apr 15 18:30:26 2020 GMT
        Subject: C=AU, ST=Some-State, O=Internet Widgits Pty Ltd, CN=example.com
        Subject Public Key Info:
            Public Key Algorithm: rsaEncryption
                Public-Key: (1024 bit)
                Modulus:
                    00:ad:64:5a:10:05:b5:b8:e1:72:0b:33:3b:61:57:
                    50:a8:a1:3d:90:9f:1e:5b:51:3f:2a:0e:0c:06:e0:
                    65:da:15:ba:73:dc:9f:a8:7f:8a:ba:d1:4e:ab:5f:
                    60:83:87:81:42:87:33:45:e1:4e:cd:9a:f3:ee:b1:
                    f2:fe:1a:31:75:96:e5:3d:97:46:00:41:f1:3f:c8:
                    a8:0a:29:86:73:8b:a4:0b:4d:fb:dd:62:84:41:91:
                    61:b2:b5:47:99:65:35:d3:0d:5d:6c:c9:d1:26:5f:
                    aa:a2:c3:bf:bd:3e:1b:c4:a0:d1:e1:a5:4c:50:5a:
                    32:c0:93:1a:40:db:17:27:97
                Exponent: 65537 (0x10001)
        X509v3 extensions:
            X509v3 Basic Constraints: 
                CA:FALSE
            Netscape Comment: 
                OpenSSL Generated Certificate
            X509v3 Subject Key Identifier: 
                9C:A4:66:93:F5:06:DC:9B:65:06:6B:E8:A9:03:D1:63:42:59:2F:2A
            X509v3 Authority Key Identifier: 
                keyid:47:32:48:C9:82:17:8E:36:83:F8:30:F9:67:26:F4:8F:04:24:98:37

    Signature Algorithm: sha256WithRSAEncryption
         68:b6:36:c9:97:af:66:42:dd:a6:bf:85:a9:05:bc:bb:79:5a:
         45:31:9e:e6:0f:31:1d:47:34:7a:4d:0a:d0:00:59:92:8e:1f:
         fb:d8:10:eb:50:b2:93:2a:ee:5b:a7:4f:71:f5:2c:4f:07:31:
         ea:82:5a:ea:b6:ad:8d:13:37:a6:1b:77:43:a9:b4:6e:1e:53:
         d5:bc:08:31:0e:f8:05:33:5a:33:e8:d9:66:4b:22:e1:99:64:
         72:22:91:7f:3b:bc:a2:d9:2c:f5:4b:98:e3:ce:e7:c6:ab:5c:
         26:36:12:07:f7:20:22:57:36:df:c4:84:6e:af:e9:6a:7a:cd:
         46:7f:d5:a7:0c:3b:a5:d8:dc:90:b3:30:50:ad:00:33:2e:3a:
         88:4e:33:ea:83:a3:42:f9:87:f3:e2:1f:52:13:2a:80:be:b4:
         0d:0a:14:fc:62:ea:02:2d:af:66:1e:1e:67:e4:1a:a6:5c:55:
         6d:ff:94:b4:21:a3:7c:18:09:bb:46:fa:d0:70:bd:e9:fe:79:
         89:f8:6c:db:38:59:b8:7b:e2:42:eb:ca:ed:28:7e:aa:b1:7e:
         78:0f:2e:51:7b:c5:b4:65:4d:75:19:9d:ca:ec:c6:1d:03:11:
         2b:b2:ca:f3:26:ad:3c:b1:6a:50:89:e4:31:57:43:08:8a:35:
         2f:05:60:e7
-----BEGIN CERTIFICATE-----
MIIDEzCCAfugAwIBAgICEAEwDQYJKoZIhvcNAQELBQAwRTELMAkGA1UEBhMCQVUx
EzARBgNVBAgMClNvbWUtU3RhdGUxITAfBgNVBAoMGEludGVybmV0IFdpZGdpdHMg
UHR5IEx0ZDAeFw0xOTA0MTYxODMwMjZaFw0yMDA0MTUxODMwMjZaMFsxCzAJBgNV
BAYTAkFVMRMwEQYDVQQIDApTb21lLVN0YXRlMSEwHwYDVQQKDBhJbnRlcm5ldCBX
aWRnaXRzIFB0eSBMdGQxFDASBgNVBAMMC2V4YW1wbGUuY29tMIGfMA0GCSqGSIb3
DQEBAQUAA4GNADCBiQKBgQCtZFoQBbW44XILMzthV1CooT2Qnx5bUT8qDgwG4GXa
Fbpz3J+of4q60U6rX2CDh4FChzNF4U7NmvPusfL+GjF1luU9l0YAQfE/yKgKKYZz
i6QLTfvdYoRBkWGytUeZZTXTDV1sydEmX6qiw7+9PhvEoNHhpUxQWjLAkxpA2xcn
lwIDAQABo3sweTAJBgNVHRMEAjAAMCwGCWCGSAGG+EIBDQQfFh1PcGVuU1NMIEdl
bmVyYXRlZCBDZXJ0aWZpY2F0ZTAdBgNVHQ4EFgQUnKRmk/UG3JtlBmvoqQPRY0JZ
LyowHwYDVR0jBBgwFoAURzJIyYIXjjaD+DD5Zyb0jwQkmDcwDQYJKoZIhvcNAQEL
BQADggEBAGi2NsmXr2ZC3aa/hakFvLt5WkUxnuYPMR1HNHpNCtAAWZKOH/vYEOtQ
spMq7lunT3H1LE8HMeqCWuq2rY0TN6Ybd0OptG4eU9W8CDEO+AUzWjPo2WZLIuGZ
ZHIikX87vKLZLPVLmOPO58arXCY2Egf3ICJXNt/EhG6v6Wp6zUZ/1acMO6XY3JCz
MFCtADMuOohOM+qDo0L5h/PiH1ITKoC+tA0KFPxi6gItr2YeHmfkGqZcVW3/lLQh
o3wYCbtG+tBwven+eYn4bNs4Wbh74kLryu0ofqqxfngPLlF7xbRlTXUZncrsxh0D
ESuyyvMmrTyxalCJ5DFXQwiKNS8FYOc=
-----END CERTIFICATE-----
